; Function Attrs: null_pointer_is_valid sspstrong uwtable
define i32 @get_CDR_enum(ptr noundef %0, ptr noundef captures(none) %1, i1 noundef zeroext %2, i32 noundef %3) local_unnamed_addr #0 {
  %.promoted.i = load i32, ptr %1, align 4
  %5 = add i32 %.promoted.i, %3
  %6 = and i32 %5, 3
  %.not9.i = icmp eq i32 %6, 0
  br i1 %.not9.i, label %8, label %.lr.ph.preheader.i

.lr.ph.preheader.i:                               ; preds = %4
  %7 = or i32 %5, -4
  %sub = sub i32 %.promoted.i, %7
  store i32 %sub, ptr %1, align 4
  br label %8

8:                                                ; preds = %.lr.ph.preheader.i, %4
  %.lcssa.i = phi i32 [ %sub, %.lr.ph.preheader.i ], [ %.promoted.i, %4 ]
  br i1 %2, label %9, label %11

9:                                                ; preds = %8
  %10 = tail call i32 @tvb_get_ntohl(ptr noundef %0, i32 noundef %.lcssa.i)
  br label %get_CDR_ulong.exit

11:                                               ; preds = %8
  %12 = tail call i32 @tvb_get_letohl(ptr noundef %0, i32 noundef %.lcssa.i)
  br label %get_CDR_ulong.exit

get_CDR_ulong.exit:                               ; preds = %9, %11
  %13 = phi i32 [ %10, %9 ], [ %12, %11 ]
  %14 = load i32, ptr %1, align 4
  %15 = add i32 %14, 4
  store i32 %15, ptr %1, align 4
  ret i32 %13
}